target datalayout = "e-m:e-p270:32:32-p271:32:32-p272:64:64-i64:64-i128:128-f80:128-n8:16:32:64-S128"
target triple = "x86_64-unknown-linux-gnu"

@stdout = external global ptr, align 8
@.str.172 = private unnamed_addr constant [2 x i8] c"w\00", align 1
@_ZN7testingL20kTestShardStatusFileE = internal constant [24 x i8] c"GTEST_SHARD_STATUS_FILE\00", align 16
@.str.237 = private unnamed_addr constant [94 x i8] c"Could not write to the test shard status file \22%s\22 specified by the %s environment variable.\0A\00", align 1

; Function Attrs: mustprogress uwtable
define linkonce_odr hidden noundef ptr @_ZN7testing8internal5posix5FOpenEPKcS3_(ptr noundef %path, ptr noundef %mode) #4 comdat {
entry:
  %path.addr = alloca ptr, align 8
  %mode.addr = alloca ptr, align 8
  store ptr %path, ptr %path.addr, align 8
  store ptr %mode, ptr %mode.addr, align 8
  %0 = load ptr, ptr %path.addr, align 8
  %1 = load ptr, ptr %mode.addr, align 8
  %call = call noalias ptr @fopen(ptr noundef %0, ptr noundef %1)
  ret ptr %call
}

; Function Attrs: mustprogress nounwind uwtable
define linkonce_odr hidden noundef ptr @_ZN7testing8internal5posix6GetEnvEPKc(ptr noundef %name) #5 comdat {
entry:
  %name.addr = alloca ptr, align 8
  store ptr %name, ptr %name.addr, align 8
  %0 = load ptr, ptr %name.addr, align 8
  %call = call ptr @getenv(ptr noundef %0) #3
  ret ptr %call
}

; Function Attrs: mustprogress uwtable
define hidden void @_ZN7testing8internal30WriteToShardStatusFileIfNeededEv() #4 {
entry:
  %test_shard_file = alloca ptr, align 8
  %file = alloca ptr, align 8
  %call = call noundef ptr @_ZN7testing8internal5posix6GetEnvEPKc(ptr noundef @_ZN7testingL20kTestShardStatusFileE)
  store ptr %call, ptr %test_shard_file, align 8
  %0 = load ptr, ptr %test_shard_file, align 8
  %cmp = icmp ne ptr %0, null
  br i1 %cmp, label %if.then, label %if.end6

if.then:                                          ; preds = %entry
  %1 = load ptr, ptr %test_shard_file, align 8
  %call1 = call noundef ptr @_ZN7testing8internal5posix5FOpenEPKcS3_(ptr noundef %1, ptr noundef @.str.172)
  store ptr %call1, ptr %file, align 8
  %2 = load ptr, ptr %file, align 8
  %cmp2 = icmp eq ptr %2, null
  br i1 %cmp2, label %if.then3, label %if.end

if.then3:                                         ; preds = %if.then
  %3 = load ptr, ptr %test_shard_file, align 8
  call void (i32, ptr, ...) @_ZN7testing8internal13ColoredPrintfENS0_10GTestColorEPKcz(i32 noundef 1, ptr noundef @.str.237, ptr noundef %3, ptr noundef @_ZN7testingL20kTestShardStatusFileE)
  %4 = load ptr, ptr @stdout, align 8
  %call4 = call i32 @fflush(ptr noundef %4)
  call void @exit(i32 noundef 1) #23
  unreachable

if.end:                                           ; preds = %if.then
  %5 = load ptr, ptr %file, align 8
  %call5 = call i32 @fclose(ptr noundef %5)
  br label %if.end6

if.end6:                                          ; preds = %if.end, %entry
  ret void
}