; Function Attrs: mustprogress nounwind uwtable
define hidden void @_ZN7testing8internal30WriteToShardStatusFileIfNeededEv() local_unnamed_addr #7 {
entry:
  %call.i = tail call noundef ptr @getenv(ptr noundef nonnull @_ZN7testingL20kTestShardStatusFileE) #47
  %cmp.not = icmp eq ptr %call.i, null
  br i1 %cmp.not, label %if.end6, label %if.then

if.then:                                          ; preds = %entry
  %call.i4 = tail call noalias noundef ptr @fopen(ptr noundef nonnull %call.i, ptr noundef nonnull @.str.172)
  %cmp2 = icmp eq ptr %call.i4, null
  br i1 %cmp2, label %if.then3, label %if.end

if.then3:                                         ; preds = %if.then
  tail call void (i32, ptr, ...) @_ZN7testing8internal13ColoredPrintfENS0_10GTestColorEPKcz(i32 noundef 1, ptr noundef nonnull @.str.237, ptr noundef nonnull %call.i, ptr noundef nonnull @_ZN7testingL20kTestShardStatusFileE)
  %0 = load ptr, ptr @stdout, align 8
  %call4 = tail call i32 @fflush(ptr noundef %0)
  tail call void @exit(i32 noundef 1) #53
  unreachable

if.end:                                           ; preds = %if.then
  %call5 = tail call i32 @fclose(ptr noundef nonnull %call.i4)
  br label %if.end6

if.end6:                                          ; preds = %if.end, %entry
  ret void
}